#include <math.h>
#include <stdio.h>
#include <stdlib.h>
#include <string.h>

int main(){
    char s[101],c[101];
    gets(s);
    c[0]=s[0];
    int i,j;
    for(i=1,j=1;s[i]!='\0';i++){
        if(s[i]!=' '){
            c[j]=s[i];
            j++;
        }else{
            if(s[i-1]!=' '){
                c[j]=s[i];
                j++;
            }
        }
    }
    c[j]='\0';
    printf("%s",c);
    return 0;
}
